target datalayout = "e-m:e-p270:32:32-p271:32:32-p272:64:64-i64:64-i128:128-f80:128-n8:16:32:64-S128"
target triple = "x86_64-unknown-linux-gnu"

%"class.llvh::StringRef" = type { ptr, i64 }
%"struct.llvh::cl::GenericOptionValue" = type { ptr }
%"class.llvh::cl::OptionValueCopy" = type <{ %"struct.llvh::cl::GenericOptionValue", i32, i8, [3 x i8] }>
%"class.std::__cxx11::basic_string" = type { %"struct.std::__cxx11::basic_string<char>::_Alloc_hider", i64, %union.anon }
%"struct.std::__cxx11::basic_string<char>::_Alloc_hider" = type { ptr }
%union.anon = type { i64, [8 x i8] }
%"class.llvh::raw_ostream" = type <{ ptr, ptr, ptr, ptr, i32, [4 x i8] }>
%"class.llvh::raw_string_ostream" = type { %"class.llvh::raw_ostream.base", ptr }
%"class.llvh::raw_ostream.base" = type <{ ptr, ptr, ptr, ptr, i32 }>

@.str.28 = private unnamed_addr constant [3 x i8] c"= \00", align 1
@.str.29 = private unnamed_addr constant [12 x i8] c" (default: \00", align 1
@.str.30 = private unnamed_addr constant [3 x i8] c")\0A\00", align 1
@.str.32 = private unnamed_addr constant [13 x i8] c"*no default*\00", align 1
@_ZTVN4llvh18raw_string_ostreamE = external unnamed_addr constant { [13 x ptr] }, align 8
@_ZTVN4llvh11raw_ostreamE = external unnamed_addr constant { [13 x ptr] }, align 8

; Function Attrs: mustprogress nounwind uwtable
define linkonce_odr hidden noundef nonnull align 8 dereferenceable(36) ptr @_ZN4llvh11raw_ostreamlsENS_9StringRefE(ptr noundef nonnull align 8 dereferenceable(36) %this, ptr %Str.coerce0, i64 %Str.coerce1) #0 comdat align 2 {
entry:
  %this.addr.i11 = alloca ptr, align 8
  %this.addr.i9 = alloca ptr, align 8
  %this.addr.i = alloca ptr, align 8
  %retval = alloca ptr, align 8
  %Str = alloca %"class.llvh::StringRef", align 8
  %this.addr = alloca ptr, align 8
  %Size = alloca i64, align 8
  %0 = getelementptr inbounds { ptr, i64 }, ptr %Str, i32 0, i32 0
  store ptr %Str.coerce0, ptr %0, align 8
  %1 = getelementptr inbounds { ptr, i64 }, ptr %Str, i32 0, i32 1
  store i64 %Str.coerce1, ptr %1, align 8
  store ptr %this, ptr %this.addr, align 8
  %this1 = load ptr, ptr %this.addr, align 8
  store ptr %Str, ptr %this.addr.i, align 8
  %this1.i = load ptr, ptr %this.addr.i, align 8
  %Length.i = getelementptr inbounds %"class.llvh::StringRef", ptr %this1.i, i32 0, i32 1
  %2 = load i64, ptr %Length.i, align 8
  store i64 %2, ptr %Size, align 8
  %3 = load i64, ptr %Size, align 8
  %OutBufEnd = getelementptr inbounds %"class.llvh::raw_ostream", ptr %this1, i32 0, i32 2
  %4 = load ptr, ptr %OutBufEnd, align 8
  %OutBufCur = getelementptr inbounds %"class.llvh::raw_ostream", ptr %this1, i32 0, i32 3
  %5 = load ptr, ptr %OutBufCur, align 8
  %sub.ptr.lhs.cast = ptrtoint ptr %4 to i64
  %sub.ptr.rhs.cast = ptrtoint ptr %5 to i64
  %sub.ptr.sub = sub i64 %sub.ptr.lhs.cast, %sub.ptr.rhs.cast
  %cmp = icmp ugt i64 %3, %sub.ptr.sub
  br i1 %cmp, label %if.then, label %if.end

if.then:                                          ; preds = %entry
  store ptr %Str, ptr %this.addr.i11, align 8
  %this1.i12 = load ptr, ptr %this.addr.i11, align 8
  %6 = load ptr, ptr %this1.i12, align 8
  %7 = load i64, ptr %Size, align 8
  %call3 = call noundef nonnull align 8 dereferenceable(36) ptr @_ZN4llvh11raw_ostream5writeEPKcm(ptr noundef nonnull align 8 dereferenceable(36) %this1, ptr noundef %6, i64 noundef %7)
  store ptr %call3, ptr %retval, align 8
  br label %return

if.end:                                           ; preds = %entry
  %8 = load i64, ptr %Size, align 8
  %tobool = icmp ne i64 %8, 0
  br i1 %tobool, label %if.then4, label %if.end8

if.then4:                                         ; preds = %if.end
  %OutBufCur5 = getelementptr inbounds %"class.llvh::raw_ostream", ptr %this1, i32 0, i32 3
  %9 = load ptr, ptr %OutBufCur5, align 8
  store ptr %Str, ptr %this.addr.i9, align 8
  %this1.i10 = load ptr, ptr %this.addr.i9, align 8
  %10 = load ptr, ptr %this1.i10, align 8
  %11 = load i64, ptr %Size, align 8
  call void @llvm.memcpy.p0.p0.i64(ptr align 1 %9, ptr align 1 %10, i64 %11, i1 false)
  %12 = load i64, ptr %Size, align 8
  %OutBufCur7 = getelementptr inbounds %"class.llvh::raw_ostream", ptr %this1, i32 0, i32 3
  %13 = load ptr, ptr %OutBufCur7, align 8
  %add.ptr = getelementptr inbounds i8, ptr %13, i64 %12
  store ptr %add.ptr, ptr %OutBufCur7, align 8
  br label %if.end8

if.end8:                                          ; preds = %if.then4, %if.end
  store ptr %this1, ptr %retval, align 8
  br label %return

return:                                           ; preds = %if.end8, %if.then
  %14 = load ptr, ptr %retval, align 8
  ret ptr %14
}

; Function Attrs: mustprogress nounwind uwtable
define linkonce_odr hidden void @_ZN4llvh11raw_ostreamC2Eb(ptr noundef nonnull align 8 dereferenceable(36) %this, i1 noundef zeroext %unbuffered) unnamed_addr #0 comdat align 2 {
entry:
  %this.addr = alloca ptr, align 8
  %unbuffered.addr = alloca i8, align 1
  store ptr %this, ptr %this.addr, align 8
  %frombool = zext i1 %unbuffered to i8
  store i8 %frombool, ptr %unbuffered.addr, align 1
  %this1 = load ptr, ptr %this.addr, align 8
  store ptr getelementptr inbounds ({ [13 x ptr] }, ptr @_ZTVN4llvh11raw_ostreamE, i32 0, i32 0, i32 2), ptr %this1, align 8
  %BufferMode = getelementptr inbounds %"class.llvh::raw_ostream", ptr %this1, i32 0, i32 4
  %0 = load i8, ptr %unbuffered.addr, align 1
  %tobool = trunc i8 %0 to i1
  %cond = select i1 %tobool, i32 0, i32 1
  store i32 %cond, ptr %BufferMode, align 8
  %OutBufCur = getelementptr inbounds %"class.llvh::raw_ostream", ptr %this1, i32 0, i32 3
  store ptr null, ptr %OutBufCur, align 8
  %OutBufEnd = getelementptr inbounds %"class.llvh::raw_ostream", ptr %this1, i32 0, i32 2
  store ptr null, ptr %OutBufEnd, align 8
  %OutBufStart = getelementptr inbounds %"class.llvh::raw_ostream", ptr %this1, i32 0, i32 1
  store ptr null, ptr %OutBufStart, align 8
  ret void
}

; Function Attrs: mustprogress nounwind uwtable
define linkonce_odr hidden noundef nonnull align 4 dereferenceable(4) ptr @_ZNK4llvh2cl15OptionValueCopyIjE8getValueEv(ptr noundef nonnull align 8 dereferenceable(13) %this) #0 comdat align 2 {
entry:
  %this.addr = alloca ptr, align 8
  store ptr %this, ptr %this.addr, align 8
  %this1 = load ptr, ptr %this.addr, align 8
  %Value = getelementptr inbounds %"class.llvh::cl::OptionValueCopy", ptr %this1, i32 0, i32 1
  ret ptr %Value
}

; Function Attrs: mustprogress nounwind uwtable
define linkonce_odr hidden noundef zeroext i1 @_ZNK4llvh2cl15OptionValueCopyIjE8hasValueEv(ptr noundef nonnull align 8 dereferenceable(13) %this) #0 comdat align 2 {
entry:
  %this.addr = alloca ptr, align 8
  store ptr %this, ptr %this.addr, align 8
  %this1 = load ptr, ptr %this.addr, align 8
  %Valid = getelementptr inbounds %"class.llvh::cl::OptionValueCopy", ptr %this1, i32 0, i32 2
  %0 = load i8, ptr %Valid, align 4
  %tobool = trunc i8 %0 to i1
  ret i1 %tobool
}

; Function Attrs: mustprogress nounwind uwtable
define linkonce_odr hidden noundef nonnull align 8 dereferenceable(36) ptr @_ZN4llvh11raw_ostreamlsERKNSt7__cxx1112basic_stringIcSt11char_traitsIcESaIcEEE(ptr noundef nonnull align 8 dereferenceable(36) %this, ptr noundef nonnull align 8 dereferenceable(32) %Str) #0 comdat align 2 {
entry:
  %this.addr = alloca ptr, align 8
  %Str.addr = alloca ptr, align 8
  store ptr %this, ptr %this.addr, align 8
  store ptr %Str, ptr %Str.addr, align 8
  %this1 = load ptr, ptr %this.addr, align 8
  %0 = load ptr, ptr %Str.addr, align 8
  %call = call noundef ptr @_ZNKSt7__cxx1112basic_stringIcSt11char_traitsIcESaIcEE4dataEv(ptr noundef nonnull align 8 dereferenceable(32) %0) #6
  %1 = load ptr, ptr %Str.addr, align 8
  %call2 = call noundef i64 @_ZNKSt7__cxx1112basic_stringIcSt11char_traitsIcESaIcEE6lengthEv(ptr noundef nonnull align 8 dereferenceable(32) %1) #6
  %call3 = call noundef nonnull align 8 dereferenceable(36) ptr @_ZN4llvh11raw_ostream5writeEPKcm(ptr noundef nonnull align 8 dereferenceable(36) %this1, ptr noundef %call, i64 noundef %call2)
  ret ptr %call3
}

; Function Attrs: mustprogress nounwind uwtable
define linkonce_odr hidden noundef nonnull align 8 dereferenceable(36) ptr @_ZN4llvh11raw_ostreamlsEPKc(ptr noundef nonnull align 8 dereferenceable(36) %this, ptr noundef %Str) #0 comdat align 2 {
entry:
  %this.addr.i = alloca ptr, align 8
  %Str.addr.i = alloca ptr, align 8
  %this.addr = alloca ptr, align 8
  %Str.addr = alloca ptr, align 8
  %agg.tmp = alloca %"class.llvh::StringRef", align 8
  store ptr %this, ptr %this.addr, align 8
  store ptr %Str, ptr %Str.addr, align 8
  %this1 = load ptr, ptr %this.addr, align 8
  %0 = load ptr, ptr %Str.addr, align 8
  store ptr %agg.tmp, ptr %this.addr.i, align 8
  store ptr %0, ptr %Str.addr.i, align 8
  %this1.i = load ptr, ptr %this.addr.i, align 8
  %1 = load ptr, ptr %Str.addr.i, align 8
  store ptr %1, ptr %this1.i, align 8
  %Length.i = getelementptr inbounds %"class.llvh::StringRef", ptr %this1.i, i32 0, i32 1
  %2 = load ptr, ptr %Str.addr.i, align 8
  %tobool.i = icmp ne ptr %2, null
  br i1 %tobool.i, label %cond.true.i, label %cond.false.i

cond.true.i:                                      ; preds = %entry
  %3 = load ptr, ptr %Str.addr.i, align 8
  %call.i = call i64 @strlen(ptr noundef %3) #14
  br label %_ZN4llvh9StringRefC2EPKc.exit

cond.false.i:                                     ; preds = %entry
  br label %_ZN4llvh9StringRefC2EPKc.exit

_ZN4llvh9StringRefC2EPKc.exit:                    ; preds = %cond.false.i, %cond.true.i
  %cond.i = phi i64 [ %call.i, %cond.true.i ], [ 0, %cond.false.i ]
  store i64 %cond.i, ptr %Length.i, align 8
  %4 = getelementptr inbounds { ptr, i64 }, ptr %agg.tmp, i32 0, i32 0
  %5 = load ptr, ptr %4, align 8
  %6 = getelementptr inbounds { ptr, i64 }, ptr %agg.tmp, i32 0, i32 1
  %7 = load i64, ptr %6, align 8
  %call = call noundef nonnull align 8 dereferenceable(36) ptr @_ZN4llvh11raw_ostreamlsENS_9StringRefE(ptr noundef nonnull align 8 dereferenceable(36) %this1, ptr %5, i64 %7)
  ret ptr %call
}

; Function Attrs: mustprogress nounwind uwtable
define linkonce_odr hidden noundef nonnull align 8 dereferenceable(36) ptr @_ZN4llvh11raw_ostreamlsEj(ptr noundef nonnull align 8 dereferenceable(36) %this, i32 noundef %N) #0 comdat align 2 {
entry:
  %this.addr = alloca ptr, align 8
  %N.addr = alloca i32, align 4
  store ptr %this, ptr %this.addr, align 8
  store i32 %N, ptr %N.addr, align 4
  %this1 = load ptr, ptr %this.addr, align 8
  %0 = load i32, ptr %N.addr, align 4
  %conv = zext i32 %0 to i64
  %call = call noundef nonnull align 8 dereferenceable(36) ptr @_ZN4llvh11raw_ostreamlsEm(ptr noundef nonnull align 8 dereferenceable(36) %this1, i64 noundef %conv)
  ret ptr %call
}

; Function Attrs: mustprogress nounwind uwtable
define linkonce_odr hidden void @_ZN4llvh18raw_string_ostreamC2ERNSt7__cxx1112basic_stringIcSt11char_traitsIcESaIcEEE(ptr noundef nonnull align 8 dereferenceable(48) %this, ptr noundef nonnull align 8 dereferenceable(32) %O) unnamed_addr #0 comdat align 2 {
entry:
  %this.addr = alloca ptr, align 8
  %O.addr = alloca ptr, align 8
  store ptr %this, ptr %this.addr, align 8
  store ptr %O, ptr %O.addr, align 8
  %this1 = load ptr, ptr %this.addr, align 8
  call void @_ZN4llvh11raw_ostreamC2Eb(ptr noundef nonnull align 8 dereferenceable(36) %this1, i1 noundef zeroext false)
  store ptr getelementptr inbounds ({ [13 x ptr] }, ptr @_ZTVN4llvh18raw_string_ostreamE, i32 0, i32 0, i32 2), ptr %this1, align 8
  %OS = getelementptr inbounds %"class.llvh::raw_string_ostream", ptr %this1, i32 0, i32 1
  %0 = load ptr, ptr %O.addr, align 8
  store ptr %0, ptr %OS, align 8
  ret void
}

; Function Attrs: mustprogress nounwind uwtable
define hidden void @_ZNK4llvh2cl6parserIjE15printOptionDiffERKNS0_6OptionEjNS0_11OptionValueIjEEm(ptr noundef nonnull align 8 dereferenceable(8) %this, ptr noundef nonnull align 8 dereferenceable(145) %O, i32 noundef %V, ptr noundef %D, i64 noundef %GlobalWidth) #0 align 2 {
entry:
  %this.addr = alloca ptr, align 8
  %O.addr = alloca ptr, align 8
  %V.addr = alloca i32, align 4
  %D.indirect_addr = alloca ptr, align 8
  %GlobalWidth.addr = alloca i64, align 8
  %Str = alloca %"class.std::__cxx11::basic_string", align 8
  %SS = alloca %"class.llvh::raw_string_ostream", align 8
  %NumSpaces = alloca i64, align 8
  store ptr %this, ptr %this.addr, align 8
  store ptr %O, ptr %O.addr, align 8
  store i32 %V, ptr %V.addr, align 4
  store ptr %D, ptr %D.indirect_addr, align 8
  store i64 %GlobalWidth, ptr %GlobalWidth.addr, align 8
  %this1 = load ptr, ptr %this.addr, align 8
  %0 = load ptr, ptr %O.addr, align 8
  %1 = load i64, ptr %GlobalWidth.addr, align 8
  call void @_ZNK4llvh2cl17basic_parser_impl15printOptionNameERKNS0_6OptionEm(ptr noundef nonnull align 8 dereferenceable(8) %this1, ptr noundef nonnull align 8 dereferenceable(145) %0, i64 noundef %1)
  call void @_ZNSt7__cxx1112basic_stringIcSt11char_traitsIcESaIcEEC1Ev(ptr noundef nonnull align 8 dereferenceable(32) %Str) #6
  call void @_ZN4llvh18raw_string_ostreamC2ERNSt7__cxx1112basic_stringIcSt11char_traitsIcESaIcEEE(ptr noundef nonnull align 8 dereferenceable(48) %SS, ptr noundef nonnull align 8 dereferenceable(32) %Str)
  %2 = load i32, ptr %V.addr, align 4
  %call = call noundef nonnull align 8 dereferenceable(36) ptr @_ZN4llvh11raw_ostreamlsEj(ptr noundef nonnull align 8 dereferenceable(36) %SS, i32 noundef %2)
  call void @_ZN4llvh18raw_string_ostreamD1Ev(ptr noundef nonnull align 8 dereferenceable(48) %SS) #6
  %call2 = call noundef nonnull align 8 dereferenceable(36) ptr @_ZN4llvh4outsEv()
  %call3 = call noundef nonnull align 8 dereferenceable(36) ptr @_ZN4llvh11raw_ostreamlsEPKc(ptr noundef nonnull align 8 dereferenceable(36) %call2, ptr noundef @.str.28)
  %call4 = call noundef nonnull align 8 dereferenceable(36) ptr @_ZN4llvh11raw_ostreamlsERKNSt7__cxx1112basic_stringIcSt11char_traitsIcESaIcEEE(ptr noundef nonnull align 8 dereferenceable(36) %call3, ptr noundef nonnull align 8 dereferenceable(32) %Str)
  %call5 = call noundef i64 @_ZNKSt7__cxx1112basic_stringIcSt11char_traitsIcESaIcEE4sizeEv(ptr noundef nonnull align 8 dereferenceable(32) %Str) #6
  %cmp = icmp ugt i64 8, %call5
  br i1 %cmp, label %cond.true, label %cond.false

cond.true:                                        ; preds = %entry
  %call6 = call noundef i64 @_ZNKSt7__cxx1112basic_stringIcSt11char_traitsIcESaIcEE4sizeEv(ptr noundef nonnull align 8 dereferenceable(32) %Str) #6
  %sub = sub i64 8, %call6
  br label %cond.end

cond.false:                                       ; preds = %entry
  br label %cond.end

cond.end:                                         ; preds = %cond.false, %cond.true
  %cond = phi i64 [ %sub, %cond.true ], [ 0, %cond.false ]
  store i64 %cond, ptr %NumSpaces, align 8
  %call7 = call noundef nonnull align 8 dereferenceable(36) ptr @_ZN4llvh4outsEv()
  %3 = load i64, ptr %NumSpaces, align 8
  %conv = trunc i64 %3 to i32
  %call8 = call noundef nonnull align 8 dereferenceable(36) ptr @_ZN4llvh11raw_ostream6indentEj(ptr noundef nonnull align 8 dereferenceable(36) %call7, i32 noundef %conv)
  %call9 = call noundef nonnull align 8 dereferenceable(36) ptr @_ZN4llvh11raw_ostreamlsEPKc(ptr noundef nonnull align 8 dereferenceable(36) %call8, ptr noundef @.str.29)
  %call10 = call noundef zeroext i1 @_ZNK4llvh2cl15OptionValueCopyIjE8hasValueEv(ptr noundef nonnull align 8 dereferenceable(13) %D)
  br i1 %call10, label %if.then, label %if.else

if.then:                                          ; preds = %cond.end
  %call11 = call noundef nonnull align 8 dereferenceable(36) ptr @_ZN4llvh4outsEv()
  %call12 = call noundef nonnull align 4 dereferenceable(4) ptr @_ZNK4llvh2cl15OptionValueCopyIjE8getValueEv(ptr noundef nonnull align 8 dereferenceable(13) %D)
  %4 = load i32, ptr %call12, align 4
  %call13 = call noundef nonnull align 8 dereferenceable(36) ptr @_ZN4llvh11raw_ostreamlsEj(ptr noundef nonnull align 8 dereferenceable(36) %call11, i32 noundef %4)
  br label %if.end

if.else:                                          ; preds = %cond.end
  %call14 = call noundef nonnull align 8 dereferenceable(36) ptr @_ZN4llvh4outsEv()
  %call15 = call noundef nonnull align 8 dereferenceable(36) ptr @_ZN4llvh11raw_ostreamlsEPKc(ptr noundef nonnull align 8 dereferenceable(36) %call14, ptr noundef @.str.32)
  br label %if.end

if.end:                                           ; preds = %if.else, %if.then
  %call16 = call noundef nonnull align 8 dereferenceable(36) ptr @_ZN4llvh4outsEv()
  %call17 = call noundef nonnull align 8 dereferenceable(36) ptr @_ZN4llvh11raw_ostreamlsEPKc(ptr noundef nonnull align 8 dereferenceable(36) %call16, ptr noundef @.str.30)
  call void @_ZNSt7__cxx1112basic_stringIcSt11char_traitsIcESaIcEED1Ev(ptr noundef nonnull align 8 dereferenceable(32) %Str) #6
  ret void
}